; Function Attrs: mustprogress uwtable
define void @_ZN7rocksdb16PlainTableReader13AllocateBloomEiim(ptr noundef nonnull align 16 dereferenceable(2536) %this, i32 noundef %bloom_bits_per_key, i32 noundef %num_keys, i64 noundef %huge_page_tlb_size) local_unnamed_addr #3 align 2 {
entry:
  %mul = mul nsw i32 %num_keys, %bloom_bits_per_key
  %cmp.not = icmp eq i32 %mul, 0
  br i1 %cmp.not, label %if.end, label %if.then

if.then:                                          ; preds = %entry
  %enable_bloom_ = getelementptr inbounds i8, ptr %this, i64 104
  store i8 1, ptr %enable_bloom_, align 8
  %bloom_ = getelementptr inbounds i8, ptr %this, i64 112
  %arena_ = getelementptr inbounds i8, ptr %this, i64 176
  %ioptions_ = getelementptr inbounds i8, ptr %this, i64 2496
  %0 = load ptr, ptr %ioptions_, align 16
  %bloom_locality = getelementptr inbounds i8, ptr %0, i64 736
  %1 = load i32, ptr %bloom_locality, align 8
  %logger = getelementptr inbounds i8, ptr %0, i64 544
  %2 = load ptr, ptr %logger, align 8
  tail call void @_ZN7rocksdb17PlainTableBloomV112SetTotalBitsEPNS_9AllocatorEjjmPNS_6LoggerE(ptr noundef nonnull align 8 dereferenceable(24) %bloom_, ptr noundef nonnull %arena_, i32 noundef %mul, i32 noundef %1, i64 noundef %huge_page_tlb_size, ptr noundef %2)
  br label %if.end

if.end:                                           ; preds = %if.then, %entry
  ret void
}